target datalayout = "e-m:e-p270:32:32-p271:32:32-p272:64:64-i64:64-i128:128-f80:128-n8:16:32:64-S128"
target triple = "x86_64-pc-linux-gnu"

%struct.AF_StyleClassRec_ = type { i32, i32, i32, i32, i32 }
%struct.FT_FaceRec_ = type { i64, i64, i64, i64, i64, ptr, ptr, i32, ptr, i32, ptr, %struct.FT_Generic_, %struct.FT_BBox_, i16, i16, i16, i16, i16, i16, i16, i16, ptr, ptr, ptr, ptr, ptr, ptr, %struct.FT_ListRec_, %struct.FT_Generic_, ptr, ptr }
%struct.FT_BBox_ = type { i64, i64, i64, i64 }
%struct.FT_ListRec_ = type { ptr, ptr }
%struct.FT_Generic_ = type { ptr, ptr }
%struct.AF_StyleMetricsRec_ = type { ptr, %struct.AF_ScalerRec_, i8, ptr }
%struct.AF_ScalerRec_ = type { ptr, i64, i64, i64, i64, i32, i32 }
%struct.AF_FaceGlobalsRec_ = type { ptr, i32, ptr, ptr, ptr, i32, [87 x ptr], i16, i64, i64, i64, i64, i64, ptr }
%struct.hb_glyph_info_t = type { i32, i32, i32, %union._hb_var_int_t, %union._hb_var_int_t }
%union._hb_var_int_t = type { i32 }

; Function Attrs: nounwind uwtable
define hidden ptr @af_shaper_get_cluster(ptr noundef %0, ptr noundef %1, ptr noundef %2, ptr noundef %3) #0 {
  %5 = alloca ptr, align 8
  %6 = alloca ptr, align 8
  %7 = alloca ptr, align 8
  %8 = alloca ptr, align 8
  %9 = alloca ptr, align 8
  %10 = alloca ptr, align 8
  %11 = alloca i32, align 4
  %12 = alloca ptr, align 8
  %13 = alloca i32, align 4
  %14 = alloca ptr, align 8
  %15 = alloca ptr, align 8
  %16 = alloca i32, align 4
  %17 = alloca i32, align 4
  %18 = alloca ptr, align 8
  %19 = alloca i32, align 4
  %20 = alloca ptr, align 8
  %21 = alloca i32, align 4
  %22 = alloca ptr, align 8
  %23 = alloca i32, align 4
  store ptr %0, ptr %5, align 8, !tbaa !123
  store ptr %1, ptr %6, align 8, !tbaa !3
  store ptr %2, ptr %7, align 8, !tbaa !153
  store ptr %3, ptr %8, align 8, !tbaa !135
  call void @llvm.lifetime.start.p0(i64 8, ptr %9) #10
  call void @llvm.lifetime.start.p0(i64 8, ptr %10) #10
  call void @llvm.lifetime.start.p0(i64 4, ptr %11) #10
  call void @llvm.lifetime.start.p0(i64 8, ptr %12) #10
  call void @llvm.lifetime.start.p0(i64 4, ptr %13) #10
  call void @llvm.lifetime.start.p0(i64 8, ptr %14) #10
  %24 = load ptr, ptr %7, align 8, !tbaa !153
  store ptr %24, ptr %14, align 8, !tbaa !154
  call void @llvm.lifetime.start.p0(i64 8, ptr %15) #10
  call void @llvm.lifetime.start.p0(i64 4, ptr %16) #10
  %25 = load ptr, ptr %6, align 8, !tbaa !3
  %26 = getelementptr inbounds nuw %struct.AF_StyleMetricsRec_, ptr %25, i32 0, i32 3
  %27 = load ptr, ptr %26, align 8, !tbaa !155
  %28 = getelementptr inbounds nuw %struct.AF_FaceGlobalsRec_, ptr %27, i32 0, i32 0
  %29 = load ptr, ptr %28, align 8, !tbaa !146
  %30 = getelementptr inbounds nuw %struct.FT_FaceRec_, ptr %29, i32 0, i32 13
  %31 = load i16, ptr %30, align 8, !tbaa !32
  %32 = zext i16 %31 to i32
  store i32 %32, ptr %11, align 4, !tbaa !43
  %33 = load ptr, ptr %6, align 8, !tbaa !3
  %34 = getelementptr inbounds nuw %struct.AF_StyleMetricsRec_, ptr %33, i32 0, i32 0
  %35 = load ptr, ptr %34, align 8, !tbaa !156
  store ptr %35, ptr %9, align 8, !tbaa !125
  %36 = load ptr, ptr %9, align 8, !tbaa !125
  %37 = getelementptr inbounds nuw %struct.AF_StyleClassRec_, ptr %36, i32 0, i32 4
  %38 = load i32, ptr %37, align 4, !tbaa !133
  %39 = zext i32 %38 to i64
  %40 = getelementptr inbounds nuw [11 x ptr], ptr @features, i64 0, i64 %39
  %41 = load ptr, ptr %40, align 8, !tbaa !157
  store ptr %41, ptr %10, align 8, !tbaa !157
  %42 = load ptr, ptr %6, align 8, !tbaa !3
  %43 = getelementptr inbounds nuw %struct.AF_StyleMetricsRec_, ptr %42, i32 0, i32 3
  %44 = load ptr, ptr %43, align 8, !tbaa !155
  %45 = getelementptr inbounds nuw %struct.AF_FaceGlobalsRec_, ptr %44, i32 0, i32 3
  %46 = load ptr, ptr %45, align 8, !tbaa !130
  store ptr %46, ptr %15, align 8, !tbaa !159
  %47 = load ptr, ptr %15, align 8, !tbaa !159
  %48 = load i32, ptr %11, align 4, !tbaa !43
  %49 = load i32, ptr %11, align 4, !tbaa !43
  call void @hb_font_set_scale(ptr noundef %47, i32 noundef %48, i32 noundef %49)
  br label %50

50:                                               ; preds = %55, %4
  %51 = load ptr, ptr %5, align 8, !tbaa !123
  %52 = load i8, ptr %51, align 1, !tbaa !127
  %53 = sext i8 %52 to i32
  %54 = icmp eq i32 %53, 32
  br i1 %54, label %55, label %58

55:                                               ; preds = %50
  %56 = load ptr, ptr %5, align 8, !tbaa !123
  %57 = getelementptr inbounds nuw i8, ptr %56, i32 1
  store ptr %57, ptr %5, align 8, !tbaa !123
  br label %50, !llvm.loop !160

58:                                               ; preds = %50
  %59 = load ptr, ptr %5, align 8, !tbaa !123
  store ptr %59, ptr %12, align 8, !tbaa !123
  br label %60

60:                                               ; preds = %116, %58
  %61 = load ptr, ptr %12, align 8, !tbaa !123
  %62 = load i8, ptr %61, align 1, !tbaa !127
  %63 = sext i8 %62 to i32
  %64 = icmp eq i32 %63, 32
  br i1 %64, label %70, label %65

65:                                               ; preds = %60
  %66 = load ptr, ptr %12, align 8, !tbaa !123
  %67 = load i8, ptr %66, align 1, !tbaa !127
  %68 = sext i8 %67 to i32
  %69 = icmp eq i32 %68, 0
  br label %70

70:                                               ; preds = %65, %60
  %71 = phi i1 [ true, %60 ], [ %69, %65 ]
  %72 = xor i1 %71, true
  br i1 %72, label %73, label %117

73:                                               ; preds = %70
  br label %74

74:                                               ; preds = %73
  %75 = load ptr, ptr %12, align 8, !tbaa !123
  %76 = getelementptr inbounds nuw i8, ptr %75, i32 1
  store ptr %76, ptr %12, align 8, !tbaa !123
  %77 = load i8, ptr %75, align 1, !tbaa !127
  %78 = zext i8 %77 to i32
  store i32 %78, ptr %16, align 4, !tbaa !43
  %79 = load i32, ptr %16, align 4, !tbaa !43
  %80 = icmp uge i32 %79, 128
  br i1 %80, label %81, label %114

81:                                               ; preds = %74
  call void @llvm.lifetime.start.p0(i64 4, ptr %17) #10
  %82 = load i32, ptr %16, align 4, !tbaa !43
  %83 = icmp ult i32 %82, 224
  br i1 %83, label %84, label %87

84:                                               ; preds = %81
  store i32 1, ptr %17, align 4, !tbaa !43
  %85 = load i32, ptr %16, align 4, !tbaa !43
  %86 = and i32 %85, 31
  store i32 %86, ptr %16, align 4, !tbaa !43
  br label %97

87:                                               ; preds = %81
  %88 = load i32, ptr %16, align 4, !tbaa !43
  %89 = icmp ult i32 %88, 240
  br i1 %89, label %90, label %93

90:                                               ; preds = %87
  store i32 2, ptr %17, align 4, !tbaa !43
  %91 = load i32, ptr %16, align 4, !tbaa !43
  %92 = and i32 %91, 15
  store i32 %92, ptr %16, align 4, !tbaa !43
  br label %96

93:                                               ; preds = %87
  store i32 3, ptr %17, align 4, !tbaa !43
  %94 = load i32, ptr %16, align 4, !tbaa !43
  %95 = and i32 %94, 7
  store i32 %95, ptr %16, align 4, !tbaa !43
  br label %96

96:                                               ; preds = %93, %90
  br label %97

97:                                               ; preds = %96, %84
  br label %98

98:                                               ; preds = %110, %97
  %99 = load i32, ptr %17, align 4, !tbaa !43
  %100 = icmp ugt i32 %99, 0
  br i1 %100, label %101, label %113

101:                                              ; preds = %98
  %102 = load i32, ptr %16, align 4, !tbaa !43
  %103 = shl i32 %102, 6
  %104 = load ptr, ptr %12, align 8, !tbaa !123
  %105 = getelementptr inbounds nuw i8, ptr %104, i32 1
  store ptr %105, ptr %12, align 8, !tbaa !123
  %106 = load i8, ptr %104, align 1, !tbaa !127
  %107 = sext i8 %106 to i32
  %108 = and i32 %107, 63
  %109 = or i32 %103, %108
  store i32 %109, ptr %16, align 4, !tbaa !43
  br label %110

110:                                              ; preds = %101
  %111 = load i32, ptr %17, align 4, !tbaa !43
  %112 = add i32 %111, -1
  store i32 %112, ptr %17, align 4, !tbaa !43
  br label %98, !llvm.loop !161

113:                                              ; preds = %98
  call void @llvm.lifetime.end.p0(i64 4, ptr %17) #10
  br label %114

114:                                              ; preds = %113, %74
  br label %115

115:                                              ; preds = %114
  br label %116

116:                                              ; preds = %115
  br label %60, !llvm.loop !162

117:                                              ; preds = %70
  %118 = load ptr, ptr %12, align 8, !tbaa !123
  %119 = load ptr, ptr %5, align 8, !tbaa !123
  %120 = ptrtoint ptr %118 to i64
  %121 = ptrtoint ptr %119 to i64
  %122 = sub i64 %120, %121
  %123 = trunc i64 %122 to i32
  store i32 %123, ptr %13, align 4, !tbaa !43
  %124 = load ptr, ptr %14, align 8, !tbaa !154
  call void @hb_buffer_clear_contents(ptr noundef %124)
  %125 = load ptr, ptr %14, align 8, !tbaa !154
  %126 = load ptr, ptr %5, align 8, !tbaa !123
  %127 = load i32, ptr %13, align 4, !tbaa !43
  %128 = load i32, ptr %13, align 4, !tbaa !43
  call void @hb_buffer_add_utf8(ptr noundef %125, ptr noundef %126, i32 noundef %127, i32 noundef 0, i32 noundef %128)
  %129 = load ptr, ptr %14, align 8, !tbaa !154
  call void @hb_buffer_guess_segment_properties(ptr noundef %129)
  %130 = load ptr, ptr %15, align 8, !tbaa !159
  %131 = load ptr, ptr %14, align 8, !tbaa !154
  %132 = load ptr, ptr %10, align 8, !tbaa !157
  %133 = load ptr, ptr %10, align 8, !tbaa !157
  %134 = icmp ne ptr %133, null
  %135 = select i1 %134, i32 1, i32 0
  call void @hb_shape(ptr noundef %130, ptr noundef %131, ptr noundef %132, i32 noundef %135)
  %136 = load ptr, ptr %10, align 8, !tbaa !157
  %137 = icmp ne ptr %136, null
  br i1 %137, label %138, label %191

138:                                              ; preds = %117
  call void @llvm.lifetime.start.p0(i64 8, ptr %18) #10
  %139 = load ptr, ptr %6, align 8, !tbaa !3
  %140 = getelementptr inbounds nuw %struct.AF_StyleMetricsRec_, ptr %139, i32 0, i32 3
  %141 = load ptr, ptr %140, align 8, !tbaa !155
  %142 = getelementptr inbounds nuw %struct.AF_FaceGlobalsRec_, ptr %141, i32 0, i32 4
  %143 = load ptr, ptr %142, align 8, !tbaa !163
  store ptr %143, ptr %18, align 8, !tbaa !154
  call void @llvm.lifetime.start.p0(i64 4, ptr %19) #10
  call void @llvm.lifetime.start.p0(i64 8, ptr %20) #10
  call void @llvm.lifetime.start.p0(i64 4, ptr %21) #10
  call void @llvm.lifetime.start.p0(i64 8, ptr %22) #10
  %144 = load ptr, ptr %18, align 8, !tbaa !154
  call void @hb_buffer_clear_contents(ptr noundef %144)
  %145 = load ptr, ptr %18, align 8, !tbaa !154
  %146 = load ptr, ptr %5, align 8, !tbaa !123
  %147 = load i32, ptr %13, align 4, !tbaa !43
  %148 = load i32, ptr %13, align 4, !tbaa !43
  call void @hb_buffer_add_utf8(ptr noundef %145, ptr noundef %146, i32 noundef %147, i32 noundef 0, i32 noundef %148)
  %149 = load ptr, ptr %18, align 8, !tbaa !154
  call void @hb_buffer_guess_segment_properties(ptr noundef %149)
  %150 = load ptr, ptr %15, align 8, !tbaa !159
  %151 = load ptr, ptr %18, align 8, !tbaa !154
  call void @hb_shape(ptr noundef %150, ptr noundef %151, ptr noundef null, i32 noundef 0)
  %152 = load ptr, ptr %14, align 8, !tbaa !154
  %153 = call ptr @hb_buffer_get_glyph_infos(ptr noundef %152, ptr noundef %19)
  store ptr %153, ptr %20, align 8, !tbaa !164
  %154 = load ptr, ptr %18, align 8, !tbaa !154
  %155 = call ptr @hb_buffer_get_glyph_infos(ptr noundef %154, ptr noundef %21)
  store ptr %155, ptr %22, align 8, !tbaa !164
  %156 = load i32, ptr %19, align 4, !tbaa !43
  %157 = load i32, ptr %21, align 4, !tbaa !43
  %158 = icmp eq i32 %156, %157
  br i1 %158, label %159, label %190

159:                                              ; preds = %138
  call void @llvm.lifetime.start.p0(i64 4, ptr %23) #10
  store i32 0, ptr %23, align 4, !tbaa !43
  br label %160

160:                                              ; preds = %180, %159
  %161 = load i32, ptr %23, align 4, !tbaa !43
  %162 = load i32, ptr %19, align 4, !tbaa !43
  %163 = icmp ult i32 %161, %162
  br i1 %163, label %164, label %183

164:                                              ; preds = %160
  %165 = load ptr, ptr %20, align 8, !tbaa !164
  %166 = load i32, ptr %23, align 4, !tbaa !43
  %167 = zext i32 %166 to i64
  %168 = getelementptr inbounds nuw %struct.hb_glyph_info_t, ptr %165, i64 %167
  %169 = getelementptr inbounds nuw %struct.hb_glyph_info_t, ptr %168, i32 0, i32 0
  %170 = load i32, ptr %169, align 4, !tbaa !166
  %171 = load ptr, ptr %22, align 8, !tbaa !164
  %172 = load i32, ptr %23, align 4, !tbaa !43
  %173 = zext i32 %172 to i64
  %174 = getelementptr inbounds nuw %struct.hb_glyph_info_t, ptr %171, i64 %173
  %175 = getelementptr inbounds nuw %struct.hb_glyph_info_t, ptr %174, i32 0, i32 0
  %176 = load i32, ptr %175, align 4, !tbaa !166
  %177 = icmp ne i32 %170, %176
  br i1 %177, label %178, label %179

178:                                              ; preds = %164
  br label %183

179:                                              ; preds = %164
  br label %180

180:                                              ; preds = %179
  %181 = load i32, ptr %23, align 4, !tbaa !43
  %182 = add i32 %181, 1
  store i32 %182, ptr %23, align 4, !tbaa !43
  br label %160, !llvm.loop !168

183:                                              ; preds = %178, %160
  %184 = load i32, ptr %23, align 4, !tbaa !43
  %185 = load i32, ptr %19, align 4, !tbaa !43
  %186 = icmp eq i32 %184, %185
  br i1 %186, label %187, label %189

187:                                              ; preds = %183
  %188 = load ptr, ptr %14, align 8, !tbaa !154
  call void @hb_buffer_clear_contents(ptr noundef %188)
  br label %189

189:                                              ; preds = %187, %183
  call void @llvm.lifetime.end.p0(i64 4, ptr %23) #10
  br label %190

190:                                              ; preds = %189, %138
  call void @llvm.lifetime.end.p0(i64 8, ptr %22) #10
  call void @llvm.lifetime.end.p0(i64 4, ptr %21) #10
  call void @llvm.lifetime.end.p0(i64 8, ptr %20) #10
  call void @llvm.lifetime.end.p0(i64 4, ptr %19) #10
  call void @llvm.lifetime.end.p0(i64 8, ptr %18) #10
  br label %191

191:                                              ; preds = %190, %117
  %192 = load ptr, ptr %14, align 8, !tbaa !154
  %193 = call i32 @hb_buffer_get_length(ptr noundef %192)
  %194 = load ptr, ptr %8, align 8, !tbaa !135
  store i32 %193, ptr %194, align 4, !tbaa !43
  %195 = load ptr, ptr %12, align 8, !tbaa !123
  call void @llvm.lifetime.end.p0(i64 4, ptr %16) #10
  call void @llvm.lifetime.end.p0(i64 8, ptr %15) #10
  call void @llvm.lifetime.end.p0(i64 8, ptr %14) #10
  call void @llvm.lifetime.end.p0(i64 4, ptr %13) #10
  call void @llvm.lifetime.end.p0(i64 8, ptr %12) #10
  call void @llvm.lifetime.end.p0(i64 4, ptr %11) #10
  call void @llvm.lifetime.end.p0(i64 8, ptr %10) #10
  call void @llvm.lifetime.end.p0(i64 8, ptr %9) #10
  ret ptr %195
}