; Function Attrs: nounwind uwtable
define hidden noundef ptr @af_shaper_get_cluster(ptr noundef %0, ptr noundef readonly captures(none) %1, ptr noundef %2, ptr noundef writeonly captures(none) %3) local_unnamed_addr #0 {
  %5 = alloca i32, align 4
  %6 = alloca i32, align 4
  %7 = getelementptr inbounds nuw i8, ptr %1, i64 64
  %8 = load ptr, ptr %7, align 8, !tbaa !252
  %9 = load ptr, ptr %8, align 8, !tbaa !248
  %10 = getelementptr inbounds nuw i8, ptr %9, i64 136
  %11 = load i16, ptr %10, align 8, !tbaa !25
  %12 = zext i16 %11 to i32
  %13 = load ptr, ptr %1, align 8, !tbaa !251
  %14 = getelementptr inbounds nuw i8, ptr %13, i64 16
  %15 = load i32, ptr %14, align 4, !tbaa !295
  %16 = zext i32 %15 to i64
  %17 = getelementptr inbounds nuw [11 x ptr], ptr @features, i64 0, i64 %16
  %18 = load ptr, ptr %17, align 8, !tbaa !304
  %19 = getelementptr inbounds nuw i8, ptr %8, i64 24
  %20 = load ptr, ptr %19, align 8, !tbaa !294
  tail call void @hb_font_set_scale(ptr noundef %20, i32 noundef %12, i32 noundef %12) #20
  br label %21

21:                                               ; preds = %21, %4
  %.058 = phi ptr [ %0, %4 ], [ %24, %21 ]
  %22 = load i8, ptr %.058, align 1, !tbaa !39
  %23 = icmp eq i8 %22, 32
  %24 = getelementptr inbounds nuw i8, ptr %.058, i64 1
  br i1 %23, label %21, label %.preheader68, !llvm.loop !306

.preheader68:                                     ; preds = %21
  %25 = and i8 %22, -33
  %spec.select.not72 = icmp eq i8 %25, 0
  br i1 %spec.select.not72, label %._crit_edge, label %.lr.ph

.lr.ph:                                           ; preds = %.preheader68, %.lr.ph
  %.05973 = phi ptr [ %.2, %.lr.ph ], [ %.058, %.preheader68 ]
  %26 = phi i8 [ %.pr, %.lr.ph ], [ %22, %.preheader68 ]
  %27 = getelementptr inbounds nuw i8, ptr %.05973, i64 1
  %28 = icmp slt i8 %26, 0
  %29 = icmp samesign ult i8 %26, -32
  %30 = icmp samesign ult i8 %26, -16
  %spec.select = select i1 %30, i64 1, i64 2
  %.062 = select i1 %29, i64 0, i64 %spec.select
  %scevgep = getelementptr i8, ptr %.05973, i64 2
  %scevgep82 = getelementptr i8, ptr %scevgep, i64 %.062
  %.2 = select i1 %28, ptr %scevgep82, ptr %27
  %.pr = load i8, ptr %.2, align 1, !tbaa !39
  %31 = and i8 %.pr, -33
  %spec.select.not = icmp eq i8 %31, 0
  br i1 %spec.select.not, label %._crit_edge, label %.lr.ph, !llvm.loop !307

._crit_edge:                                      ; preds = %.lr.ph, %.preheader68
  %.059.lcssa = phi ptr [ %.058, %.preheader68 ], [ %.2, %.lr.ph ]
  %32 = ptrtoint ptr %.059.lcssa to i64
  %33 = ptrtoint ptr %.058 to i64
  %34 = sub i64 %32, %33
  %35 = trunc i64 %34 to i32
  tail call void @hb_buffer_clear_contents(ptr noundef %2) #20
  tail call void @hb_buffer_add_utf8(ptr noundef %2, ptr noundef nonnull %.058, i32 noundef %35, i32 noundef 0, i32 noundef %35) #20
  tail call void @hb_buffer_guess_segment_properties(ptr noundef %2) #20
  %.not = icmp ne i32 %15, 10
  %36 = zext i1 %.not to i32
  tail call void @hb_shape(ptr noundef %20, ptr noundef %2, ptr noundef %18, i32 noundef %36) #20
  br i1 %.not, label %37, label %54

37:                                               ; preds = %._crit_edge
  %38 = load ptr, ptr %7, align 8, !tbaa !252
  %39 = getelementptr inbounds nuw i8, ptr %38, i64 32
  %40 = load ptr, ptr %39, align 8, !tbaa !308
  call void @llvm.lifetime.start.p0(i64 4, ptr nonnull %5) #20
  call void @llvm.lifetime.start.p0(i64 4, ptr nonnull %6) #20
  tail call void @hb_buffer_clear_contents(ptr noundef %40) #20
  tail call void @hb_buffer_add_utf8(ptr noundef %40, ptr noundef nonnull %.058, i32 noundef %35, i32 noundef 0, i32 noundef %35) #20
  tail call void @hb_buffer_guess_segment_properties(ptr noundef %40) #20
  tail call void @hb_shape(ptr noundef %20, ptr noundef %40, ptr noundef null, i32 noundef 0) #20
  %41 = call ptr @hb_buffer_get_glyph_infos(ptr noundef %2, ptr noundef nonnull %5) #20
  %42 = call ptr @hb_buffer_get_glyph_infos(ptr noundef %40, ptr noundef nonnull %6) #20
  %43 = load i32, ptr %5, align 4, !tbaa !43
  %44 = load i32, ptr %6, align 4, !tbaa !43
  %45 = icmp eq i32 %43, %44
  br i1 %45, label %.preheader, label %53

.preheader:                                       ; preds = %37
  %.not80 = icmp eq i32 %43, 0
  br i1 %.not80, label %._crit_edge76, label %.lr.ph75.preheader

.lr.ph75.preheader:                               ; preds = %.preheader
  %wide.trip.count = zext i32 %43 to i64
  br label %.lr.ph75

.lr.ph75:                                         ; preds = %.lr.ph75.preheader, %50
  %indvars.iv = phi i64 [ 0, %.lr.ph75.preheader ], [ %indvars.iv.next, %50 ]
  %46 = getelementptr inbounds nuw %struct.hb_glyph_info_t, ptr %41, i64 %indvars.iv
  %47 = load i32, ptr %46, align 4, !tbaa !44
  %48 = getelementptr inbounds nuw %struct.hb_glyph_info_t, ptr %42, i64 %indvars.iv
  %49 = load i32, ptr %48, align 4, !tbaa !44
  %.not66 = icmp eq i32 %47, %49
  br i1 %.not66, label %50, label %._crit_edge76.loopexit

50:                                               ; preds = %.lr.ph75
  %indvars.iv.next = add nuw nsw i64 %indvars.iv, 1
  %exitcond.not = icmp eq i64 %indvars.iv.next, %wide.trip.count
  br i1 %exitcond.not, label %._crit_edge76.thread, label %.lr.ph75, !llvm.loop !309

._crit_edge76.loopexit:                           ; preds = %.lr.ph75
  %51 = trunc nuw i64 %indvars.iv to i32
  br label %._crit_edge76

._crit_edge76:                                    ; preds = %._crit_edge76.loopexit, %.preheader
  %.0.lcssa = phi i32 [ 0, %.preheader ], [ %51, %._crit_edge76.loopexit ]
  %52 = icmp eq i32 %.0.lcssa, %43
  br i1 %52, label %._crit_edge76.thread, label %53

._crit_edge76.thread:                             ; preds = %50, %._crit_edge76
  call void @hb_buffer_clear_contents(ptr noundef %2) #20
  br label %53

53:                                               ; preds = %._crit_edge76, %._crit_edge76.thread, %37
  call void @llvm.lifetime.end.p0(i64 4, ptr nonnull %6) #20
  call void @llvm.lifetime.end.p0(i64 4, ptr nonnull %5) #20
  br label %54

54:                                               ; preds = %53, %._crit_edge
  %55 = call i32 @hb_buffer_get_length(ptr noundef %2) #20
  store i32 %55, ptr %3, align 4, !tbaa !43
  ret ptr %.059.lcssa
}